target datalayout = "e-m:e-p270:32:32-p271:32:32-p272:64:64-i64:64-i128:128-f80:128-n8:16:32:64-S128"
target triple = "x86_64-pc-linux-gnu"

%struct.prte_state_base_module_1_0_0_t = type { ptr, ptr, ptr, ptr, ptr, ptr, ptr, ptr, ptr, ptr }
%struct.pmix_class_t = type { ptr, ptr, ptr, ptr, i32, i32, ptr, ptr, i64 }
%struct.pmix_list_t = type { %struct.pmix_object_t, %struct.pmix_list_item_t, i64 }
%struct.pmix_object_t = type { %union.pthread_mutex_t, ptr, i32, %struct.pmix_tma }
%union.pthread_mutex_t = type { %struct.__pthread_mutex_s }
%struct.__pthread_mutex_s = type { i32, i32, i32, i32, i32, i16, i16, %struct.__pthread_internal_list }
%struct.__pthread_internal_list = type { ptr, ptr }
%struct.pmix_tma = type { ptr, ptr, ptr, ptr, ptr, ptr, ptr, ptr }
%struct.pmix_list_item_t = type { %struct.pmix_object_t, ptr, ptr, i32 }
%struct.pmix_mca_base_framework_t = type { ptr, ptr, ptr, ptr, ptr, ptr, i32, i32, ptr, ptr, i32, i32, %struct.pmix_list_t, %struct.pmix_list_t }

@pmix_class_init_epoch = external global i32, align 4
@pmix_list_t_class = external global %struct.pmix_class_t, align 8
@prte_job_states = external global %struct.pmix_list_t, align 8
@prte_proc_states = external global %struct.pmix_list_t, align 8
@prte_state = external global %struct.prte_state_base_module_1_0_0_t, align 8
@job_states = internal global [2 x i32] [i32 18, i32 19], align 4
@job_callbacks = internal global [2 x ptr] [ptr @track_jobs, ptr @track_jobs], align 16
@.str = private unnamed_addr constant [37 x i8] c"PRTE ERROR: %s in file %s at line %d\00", align 1
@.str.1 = private unnamed_addr constant [14 x i8] c"state_prted.c\00", align 1
@prte_state_base_framework = external global %struct.pmix_mca_base_framework_t, align 8
@proc_states = internal global [6 x i32] [i32 4, i32 9, i32 5, i32 6, i32 7, i32 20], align 16
@proc_callbacks = internal global [6 x ptr] [ptr @track_procs, ptr @track_procs, ptr @track_procs, ptr @track_procs, ptr @track_procs, ptr @track_procs], align 16

; Function Attrs: inlinehint nounwind uwtable
define internal void @pmix_obj_run_constructors(ptr noundef %0) #3 {
  %2 = alloca ptr, align 8
  %3 = alloca ptr, align 8
  store ptr %0, ptr %2, align 8, !tbaa !31
  call void @llvm.lifetime.start.p0(i64 8, ptr %3) #10
  %4 = load ptr, ptr %2, align 8, !tbaa !31
  %5 = getelementptr inbounds nuw %struct.pmix_object_t, ptr %4, i32 0, i32 1
  %6 = load ptr, ptr %5, align 8, !tbaa !13
  %7 = getelementptr inbounds nuw %struct.pmix_class_t, ptr %6, i32 0, i32 6
  %8 = load ptr, ptr %7, align 8, !tbaa !46
  store ptr %8, ptr %3, align 8, !tbaa !19
  br label %9

9:                                                ; preds = %13, %1
  %10 = load ptr, ptr %3, align 8, !tbaa !19
  %11 = load ptr, ptr %10, align 8, !tbaa !19
  %12 = icmp ne ptr null, %11
  br i1 %12, label %13, label %19

13:                                               ; preds = %9
  %14 = load ptr, ptr %3, align 8, !tbaa !19
  %15 = load ptr, ptr %14, align 8, !tbaa !19
  %16 = load ptr, ptr %2, align 8, !tbaa !31
  call void %15(ptr noundef %16)
  %17 = load ptr, ptr %3, align 8, !tbaa !19
  %18 = getelementptr inbounds nuw ptr, ptr %17, i32 1
  store ptr %18, ptr %3, align 8, !tbaa !19
  br label %9, !llvm.loop !47

19:                                               ; preds = %9
  call void @llvm.lifetime.end.p0(i64 8, ptr %3) #10
  ret void
}

; Function Attrs: inlinehint nounwind uwtable
define internal void @pmix_obj_construct_tma(ptr noundef %0, ptr noundef %1) #3 {
  %3 = alloca ptr, align 8
  %4 = alloca ptr, align 8
  store ptr %0, ptr %3, align 8, !tbaa !31
  store ptr %1, ptr %4, align 8, !tbaa !36
  %5 = load ptr, ptr %4, align 8, !tbaa !36
  %6 = icmp eq ptr null, %5
  br i1 %6, label %7, label %32

7:                                                ; preds = %2
  %8 = load ptr, ptr %3, align 8, !tbaa !31
  %9 = getelementptr inbounds nuw %struct.pmix_object_t, ptr %8, i32 0, i32 3
  %10 = getelementptr inbounds nuw %struct.pmix_tma, ptr %9, i32 0, i32 0
  store ptr null, ptr %10, align 8, !tbaa !38
  %11 = load ptr, ptr %3, align 8, !tbaa !31
  %12 = getelementptr inbounds nuw %struct.pmix_object_t, ptr %11, i32 0, i32 3
  %13 = getelementptr inbounds nuw %struct.pmix_tma, ptr %12, i32 0, i32 1
  store ptr null, ptr %13, align 8, !tbaa !39
  %14 = load ptr, ptr %3, align 8, !tbaa !31
  %15 = getelementptr inbounds nuw %struct.pmix_object_t, ptr %14, i32 0, i32 3
  %16 = getelementptr inbounds nuw %struct.pmix_tma, ptr %15, i32 0, i32 2
  store ptr null, ptr %16, align 8, !tbaa !40
  %17 = load ptr, ptr %3, align 8, !tbaa !31
  %18 = getelementptr inbounds nuw %struct.pmix_object_t, ptr %17, i32 0, i32 3
  %19 = getelementptr inbounds nuw %struct.pmix_tma, ptr %18, i32 0, i32 3
  store ptr null, ptr %19, align 8, !tbaa !41
  %20 = load ptr, ptr %3, align 8, !tbaa !31
  %21 = getelementptr inbounds nuw %struct.pmix_object_t, ptr %20, i32 0, i32 3
  %22 = getelementptr inbounds nuw %struct.pmix_tma, ptr %21, i32 0, i32 4
  store ptr null, ptr %22, align 8, !tbaa !42
  %23 = load ptr, ptr %3, align 8, !tbaa !31
  %24 = getelementptr inbounds nuw %struct.pmix_object_t, ptr %23, i32 0, i32 3
  %25 = getelementptr inbounds nuw %struct.pmix_tma, ptr %24, i32 0, i32 5
  store ptr null, ptr %25, align 8, !tbaa !33
  %26 = load ptr, ptr %3, align 8, !tbaa !31
  %27 = getelementptr inbounds nuw %struct.pmix_object_t, ptr %26, i32 0, i32 3
  %28 = getelementptr inbounds nuw %struct.pmix_tma, ptr %27, i32 0, i32 6
  store ptr null, ptr %28, align 8, !tbaa !43
  %29 = load ptr, ptr %3, align 8, !tbaa !31
  %30 = getelementptr inbounds nuw %struct.pmix_object_t, ptr %29, i32 0, i32 3
  %31 = getelementptr inbounds nuw %struct.pmix_tma, ptr %30, i32 0, i32 7
  store ptr null, ptr %31, align 8, !tbaa !44
  br label %36

32:                                               ; preds = %2
  %33 = load ptr, ptr %3, align 8, !tbaa !31
  %34 = getelementptr inbounds nuw %struct.pmix_object_t, ptr %33, i32 0, i32 3
  %35 = load ptr, ptr %4, align 8, !tbaa !36
  call void @llvm.memcpy.p0.p0.i64(ptr align 8 %34, ptr align 8 %35, i64 64, i1 false), !tbaa.struct !45
  br label %36

36:                                               ; preds = %32, %7
  ret void
}

; Function Attrs: nounwind uwtable
define internal i32 @init() #0 {
  %1 = alloca i32, align 4
  %2 = alloca i32, align 4
  %3 = alloca i32, align 4
  call void @llvm.lifetime.start.p0(i64 4, ptr %1) #10
  call void @llvm.lifetime.start.p0(i64 4, ptr %2) #10
  call void @llvm.lifetime.start.p0(i64 4, ptr %3) #10
  br label %4

4:                                                ; preds = %0
  br label %5

5:                                                ; preds = %4
  br label %6

6:                                                ; preds = %5
  %7 = load i32, ptr @pmix_class_init_epoch, align 4, !tbaa !3
  %8 = load i32, ptr getelementptr inbounds nuw (%struct.pmix_class_t, ptr @pmix_list_t_class, i32 0, i32 4), align 8, !tbaa !7
  %9 = icmp ne i32 %7, %8
  br i1 %9, label %10, label %11

10:                                               ; preds = %6
  call void @pmix_class_initialize(ptr noundef @pmix_list_t_class)
  br label %11

11:                                               ; preds = %10, %6
  store ptr @pmix_list_t_class, ptr getelementptr inbounds nuw (%struct.pmix_object_t, ptr @prte_job_states, i32 0, i32 1), align 8, !tbaa !13
  store i32 1, ptr getelementptr inbounds nuw (%struct.pmix_object_t, ptr @prte_job_states, i32 0, i32 2), align 8, !tbaa !16
  call void @pmix_obj_construct_tma(ptr noundef @prte_job_states, ptr noundef null)
  call void @pmix_obj_run_constructors(ptr noundef @prte_job_states)
  br label %12

12:                                               ; preds = %11
  br label %13

13:                                               ; preds = %12
  br label %14

14:                                               ; preds = %13
  br label %15

15:                                               ; preds = %14
  br label %16

16:                                               ; preds = %15
  br label %17

17:                                               ; preds = %16
  br label %18

18:                                               ; preds = %17
  br label %19

19:                                               ; preds = %18
  br label %20

20:                                               ; preds = %19
  %21 = load i32, ptr @pmix_class_init_epoch, align 4, !tbaa !3
  %22 = load i32, ptr getelementptr inbounds nuw (%struct.pmix_class_t, ptr @pmix_list_t_class, i32 0, i32 4), align 8, !tbaa !7
  %23 = icmp ne i32 %21, %22
  br i1 %23, label %24, label %25

24:                                               ; preds = %20
  call void @pmix_class_initialize(ptr noundef @pmix_list_t_class)
  br label %25

25:                                               ; preds = %24, %20
  store ptr @pmix_list_t_class, ptr getelementptr inbounds nuw (%struct.pmix_object_t, ptr @prte_proc_states, i32 0, i32 1), align 8, !tbaa !13
  store i32 1, ptr getelementptr inbounds nuw (%struct.pmix_object_t, ptr @prte_proc_states, i32 0, i32 2), align 8, !tbaa !16
  call void @pmix_obj_construct_tma(ptr noundef @prte_proc_states, ptr noundef null)
  call void @pmix_obj_run_constructors(ptr noundef @prte_proc_states)
  br label %26

26:                                               ; preds = %25
  br label %27

27:                                               ; preds = %26
  br label %28

28:                                               ; preds = %27
  br label %29

29:                                               ; preds = %28
  br label %30

30:                                               ; preds = %29
  br label %31

31:                                               ; preds = %30
  store i32 2, ptr %1, align 4, !tbaa !3
  store i32 0, ptr %2, align 4, !tbaa !3
  br label %32

32:                                               ; preds = %60, %31
  %33 = load i32, ptr %2, align 4, !tbaa !3
  %34 = load i32, ptr %1, align 4, !tbaa !3
  %35 = icmp slt i32 %33, %34
  br i1 %35, label %36, label %63

36:                                               ; preds = %32
  %37 = load ptr, ptr getelementptr inbounds nuw (%struct.prte_state_base_module_1_0_0_t, ptr @prte_state, i32 0, i32 3), align 8, !tbaa !17
  %38 = load i32, ptr %2, align 4, !tbaa !3
  %39 = sext i32 %38 to i64
  %40 = getelementptr inbounds [2 x i32], ptr @job_states, i64 0, i64 %39
  %41 = load i32, ptr %40, align 4, !tbaa !3
  %42 = load i32, ptr %2, align 4, !tbaa !3
  %43 = sext i32 %42 to i64
  %44 = getelementptr inbounds [2 x ptr], ptr @job_callbacks, i64 0, i64 %43
  %45 = load ptr, ptr %44, align 8, !tbaa !19
  %46 = call i32 %37(i32 noundef %41, ptr noundef %45)
  store i32 %46, ptr %3, align 4, !tbaa !3
  %47 = load i32, ptr %3, align 4, !tbaa !3
  %48 = icmp ne i32 0, %47
  br i1 %48, label %49, label %59

49:                                               ; preds = %36
  br label %50

50:                                               ; preds = %49
  %51 = load i32, ptr %3, align 4, !tbaa !3
  %52 = icmp ne i32 -43, %51
  br i1 %52, label %53, label %56

53:                                               ; preds = %50
  %54 = load i32, ptr %3, align 4, !tbaa !3
  %55 = call ptr @prte_strerror(i32 noundef %54)
  call void (i32, ptr, ...) @pmix_output(i32 noundef 0, ptr noundef @.str, ptr noundef %55, ptr noundef @.str.1, i32 noundef 110)
  br label %56

56:                                               ; preds = %53, %50
  br label %57

57:                                               ; preds = %56
  br label %58

58:                                               ; preds = %57
  br label %59

59:                                               ; preds = %58, %36
  br label %60

60:                                               ; preds = %59
  %61 = load i32, ptr %2, align 4, !tbaa !3
  %62 = add nsw i32 %61, 1
  store i32 %62, ptr %2, align 4, !tbaa !3
  br label %32, !llvm.loop !20

63:                                               ; preds = %32
  %64 = load ptr, ptr getelementptr inbounds nuw (%struct.prte_state_base_module_1_0_0_t, ptr @prte_state, i32 0, i32 3), align 8, !tbaa !17
  %65 = call i32 %64(i32 noundef 64, ptr noundef @prte_quit)
  store i32 %65, ptr %3, align 4, !tbaa !3
  %66 = load i32, ptr %3, align 4, !tbaa !3
  %67 = icmp ne i32 0, %66
  br i1 %67, label %68, label %78

68:                                               ; preds = %63
  br label %69

69:                                               ; preds = %68
  %70 = load i32, ptr %3, align 4, !tbaa !3
  %71 = icmp ne i32 -43, %70
  br i1 %71, label %72, label %75

72:                                               ; preds = %69
  %73 = load i32, ptr %3, align 4, !tbaa !3
  %74 = call ptr @prte_strerror(i32 noundef %73)
  call void (i32, ptr, ...) @pmix_output(i32 noundef 0, ptr noundef @.str, ptr noundef %74, ptr noundef @.str.1, i32 noundef 116)
  br label %75

75:                                               ; preds = %72, %69
  br label %76

76:                                               ; preds = %75
  br label %77

77:                                               ; preds = %76
  br label %78

78:                                               ; preds = %77, %63
  %79 = load ptr, ptr getelementptr inbounds nuw (%struct.prte_state_base_module_1_0_0_t, ptr @prte_state, i32 0, i32 3), align 8, !tbaa !17
  %80 = call i32 %79(i32 noundef 33, ptr noundef @prte_quit)
  store i32 %80, ptr %3, align 4, !tbaa !3
  %81 = load i32, ptr %3, align 4, !tbaa !3
  %82 = icmp ne i32 0, %81
  br i1 %82, label %83, label %93

83:                                               ; preds = %78
  br label %84

84:                                               ; preds = %83
  %85 = load i32, ptr %3, align 4, !tbaa !3
  %86 = icmp ne i32 -43, %85
  br i1 %86, label %87, label %90

87:                                               ; preds = %84
  %88 = load i32, ptr %3, align 4, !tbaa !3
  %89 = call ptr @prte_strerror(i32 noundef %88)
  call void (i32, ptr, ...) @pmix_output(i32 noundef 0, ptr noundef @.str, ptr noundef %89, ptr noundef @.str.1, i32 noundef 121)
  br label %90

90:                                               ; preds = %87, %84
  br label %91

91:                                               ; preds = %90
  br label %92

92:                                               ; preds = %91
  br label %93

93:                                               ; preds = %92, %78
  %94 = load i32, ptr getelementptr inbounds nuw (%struct.pmix_mca_base_framework_t, ptr @prte_state_base_framework, i32 0, i32 11), align 4, !tbaa !22
  %95 = call i32 @pmix_output_get_verbosity(i32 noundef %94)
  %96 = icmp slt i32 5, %95
  br i1 %96, label %97, label %98

97:                                               ; preds = %93
  call void @prte_state_base_print_job_state_machine()
  br label %98

98:                                               ; preds = %97, %93
  store i32 6, ptr %1, align 4, !tbaa !3
  store i32 0, ptr %2, align 4, !tbaa !3
  br label %99

99:                                               ; preds = %127, %98
  %100 = load i32, ptr %2, align 4, !tbaa !3
  %101 = load i32, ptr %1, align 4, !tbaa !3
  %102 = icmp slt i32 %100, %101
  br i1 %102, label %103, label %130

103:                                              ; preds = %99
  %104 = load ptr, ptr getelementptr inbounds nuw (%struct.prte_state_base_module_1_0_0_t, ptr @prte_state, i32 0, i32 7), align 8, !tbaa !28
  %105 = load i32, ptr %2, align 4, !tbaa !3
  %106 = sext i32 %105 to i64
  %107 = getelementptr inbounds [6 x i32], ptr @proc_states, i64 0, i64 %106
  %108 = load i32, ptr %107, align 4, !tbaa !3
  %109 = load i32, ptr %2, align 4, !tbaa !3
  %110 = sext i32 %109 to i64
  %111 = getelementptr inbounds [6 x ptr], ptr @proc_callbacks, i64 0, i64 %110
  %112 = load ptr, ptr %111, align 8, !tbaa !19
  %113 = call i32 %104(i32 noundef %108, ptr noundef %112)
  store i32 %113, ptr %3, align 4, !tbaa !3
  %114 = load i32, ptr %3, align 4, !tbaa !3
  %115 = icmp ne i32 0, %114
  br i1 %115, label %116, label %126

116:                                              ; preds = %103
  br label %117

117:                                              ; preds = %116
  %118 = load i32, ptr %3, align 4, !tbaa !3
  %119 = icmp ne i32 -43, %118
  br i1 %119, label %120, label %123

120:                                              ; preds = %117
  %121 = load i32, ptr %3, align 4, !tbaa !3
  %122 = call ptr @prte_strerror(i32 noundef %121)
  call void (i32, ptr, ...) @pmix_output(i32 noundef 0, ptr noundef @.str, ptr noundef %122, ptr noundef @.str.1, i32 noundef 134)
  br label %123

123:                                              ; preds = %120, %117
  br label %124

124:                                              ; preds = %123
  br label %125

125:                                              ; preds = %124
  br label %126

126:                                              ; preds = %125, %103
  br label %127

127:                                              ; preds = %126
  %128 = load i32, ptr %2, align 4, !tbaa !3
  %129 = add nsw i32 %128, 1
  store i32 %129, ptr %2, align 4, !tbaa !3
  br label %99, !llvm.loop !29

130:                                              ; preds = %99
  %131 = load i32, ptr getelementptr inbounds nuw (%struct.pmix_mca_base_framework_t, ptr @prte_state_base_framework, i32 0, i32 11), align 4, !tbaa !22
  %132 = call i32 @pmix_output_get_verbosity(i32 noundef %131)
  %133 = icmp slt i32 5, %132
  br i1 %133, label %134, label %135

134:                                              ; preds = %130
  call void @prte_state_base_print_proc_state_machine()
  br label %135

135:                                              ; preds = %134, %130
  call void @llvm.lifetime.end.p0(i64 4, ptr %3) #10
  call void @llvm.lifetime.end.p0(i64 4, ptr %2) #10
  call void @llvm.lifetime.end.p0(i64 4, ptr %1) #10
  ret i32 0
}