; Function Attrs: nounwind uwtable
define internal noundef i32 @init() #0 {
  %1 = load i32, ptr @pmix_class_init_epoch, align 4, !tbaa !3
  %2 = load i32, ptr getelementptr inbounds nuw (i8, ptr @pmix_list_t_class, i64 32), align 8, !tbaa !7
  %.not = icmp eq i32 %1, %2
  br i1 %.not, label %4, label %3

3:                                                ; preds = %0
  tail call void @pmix_class_initialize(ptr noundef nonnull @pmix_list_t_class) #11
  br label %4

4:                                                ; preds = %3, %0
  store ptr @pmix_list_t_class, ptr getelementptr inbounds nuw (i8, ptr @prte_job_states, i64 40), align 8, !tbaa !13
  store i32 1, ptr getelementptr inbounds nuw (i8, ptr @prte_job_states, i64 48), align 8, !tbaa !16
  tail call void @llvm.memset.p0.i64(ptr noundef nonnull align 8 dereferenceable(64) getelementptr inbounds nuw (i8, ptr @prte_job_states, i64 56), i8 0, i64 64, i1 false)
  %5 = load ptr, ptr getelementptr inbounds nuw (i8, ptr @pmix_list_t_class, i64 40), align 8, !tbaa !17
  %6 = load ptr, ptr %5, align 8, !tbaa !18
  %.not6.i = icmp eq ptr %6, null
  br i1 %.not6.i, label %pmix_obj_run_constructors.exit, label %.lr.ph.i

.lr.ph.i:                                         ; preds = %4, %.lr.ph.i
  %7 = phi ptr [ %9, %.lr.ph.i ], [ %6, %4 ]
  %.07.i = phi ptr [ %8, %.lr.ph.i ], [ %5, %4 ]
  tail call void %7(ptr noundef nonnull @prte_job_states) #11
  %8 = getelementptr inbounds nuw i8, ptr %.07.i, i64 8
  %9 = load ptr, ptr %8, align 8, !tbaa !18
  %.not.i = icmp eq ptr %9, null
  br i1 %.not.i, label %pmix_obj_run_constructors.exit, label %.lr.ph.i, !llvm.loop !19

pmix_obj_run_constructors.exit:                   ; preds = %.lr.ph.i, %4
  %10 = load i32, ptr @pmix_class_init_epoch, align 4, !tbaa !3
  %11 = load i32, ptr getelementptr inbounds nuw (i8, ptr @pmix_list_t_class, i64 32), align 8, !tbaa !7
  %.not33 = icmp eq i32 %10, %11
  br i1 %.not33, label %13, label %12

12:                                               ; preds = %pmix_obj_run_constructors.exit
  tail call void @pmix_class_initialize(ptr noundef nonnull @pmix_list_t_class) #11
  br label %13

13:                                               ; preds = %12, %pmix_obj_run_constructors.exit
  store ptr @pmix_list_t_class, ptr getelementptr inbounds nuw (i8, ptr @prte_proc_states, i64 40), align 8, !tbaa !13
  store i32 1, ptr getelementptr inbounds nuw (i8, ptr @prte_proc_states, i64 48), align 8, !tbaa !16
  tail call void @llvm.memset.p0.i64(ptr noundef nonnull align 8 dereferenceable(64) getelementptr inbounds nuw (i8, ptr @prte_proc_states, i64 56), i8 0, i64 64, i1 false)
  %14 = load ptr, ptr getelementptr inbounds nuw (i8, ptr @pmix_list_t_class, i64 40), align 8, !tbaa !17
  %15 = load ptr, ptr %14, align 8, !tbaa !18
  %.not6.i34 = icmp eq ptr %15, null
  br i1 %.not6.i34, label %pmix_obj_run_constructors.exit38.preheader, label %.lr.ph.i35

.lr.ph.i35:                                       ; preds = %13, %.lr.ph.i35
  %16 = phi ptr [ %18, %.lr.ph.i35 ], [ %15, %13 ]
  %.07.i36 = phi ptr [ %17, %.lr.ph.i35 ], [ %14, %13 ]
  tail call void %16(ptr noundef nonnull @prte_proc_states) #11
  %17 = getelementptr inbounds nuw i8, ptr %.07.i36, i64 8
  %18 = load ptr, ptr %17, align 8, !tbaa !18
  %.not.i37 = icmp eq ptr %18, null
  br i1 %.not.i37, label %pmix_obj_run_constructors.exit38.preheader, label %.lr.ph.i35, !llvm.loop !19

pmix_obj_run_constructors.exit38.preheader:       ; preds = %.lr.ph.i35, %13
  br label %pmix_obj_run_constructors.exit38

pmix_obj_run_constructors.exit38:                 ; preds = %pmix_obj_run_constructors.exit38.preheader, %26
  %19 = phi i1 [ false, %26 ], [ true, %pmix_obj_run_constructors.exit38.preheader ]
  %indvars.iv = phi i64 [ 1, %26 ], [ 0, %pmix_obj_run_constructors.exit38.preheader ]
  %20 = load ptr, ptr getelementptr inbounds nuw (i8, ptr @prte_state, i64 24), align 8, !tbaa !21
  %21 = getelementptr inbounds nuw [2 x i32], ptr @job_states, i64 0, i64 %indvars.iv
  %22 = load i32, ptr %21, align 4, !tbaa !3
  %23 = tail call i32 %20(i32 noundef %22, ptr noundef nonnull @track_jobs) #11
  switch i32 %23, label %24 [
    i32 -43, label %26
    i32 0, label %26
  ]

24:                                               ; preds = %pmix_obj_run_constructors.exit38
  %25 = tail call ptr @prte_strerror(i32 noundef %23) #11
  tail call void (i32, ptr, ...) @pmix_output(i32 noundef 0, ptr noundef nonnull @.str, ptr noundef %25, ptr noundef nonnull @.str.1, i32 noundef 110) #11
  br label %26

26:                                               ; preds = %pmix_obj_run_constructors.exit38, %pmix_obj_run_constructors.exit38, %24
  br i1 %19, label %pmix_obj_run_constructors.exit38, label %27, !llvm.loop !23

27:                                               ; preds = %26
  %28 = load ptr, ptr getelementptr inbounds nuw (i8, ptr @prte_state, i64 24), align 8, !tbaa !21
  %29 = tail call i32 %28(i32 noundef 64, ptr noundef nonnull @prte_quit) #11
  switch i32 %29, label %30 [
    i32 -43, label %32
    i32 0, label %32
  ]

30:                                               ; preds = %27
  %31 = tail call ptr @prte_strerror(i32 noundef %29) #11
  tail call void (i32, ptr, ...) @pmix_output(i32 noundef 0, ptr noundef nonnull @.str, ptr noundef %31, ptr noundef nonnull @.str.1, i32 noundef 116) #11
  br label %32

32:                                               ; preds = %27, %27, %30
  %33 = load ptr, ptr getelementptr inbounds nuw (i8, ptr @prte_state, i64 24), align 8, !tbaa !21
  %34 = tail call i32 %33(i32 noundef 33, ptr noundef nonnull @prte_quit) #11
  switch i32 %34, label %35 [
    i32 -43, label %37
    i32 0, label %37
  ]

35:                                               ; preds = %32
  %36 = tail call ptr @prte_strerror(i32 noundef %34) #11
  tail call void (i32, ptr, ...) @pmix_output(i32 noundef 0, ptr noundef nonnull @.str, ptr noundef %36, ptr noundef nonnull @.str.1, i32 noundef 121) #11
  br label %37

37:                                               ; preds = %32, %32, %35
  %38 = load i32, ptr getelementptr inbounds nuw (i8, ptr @prte_state_base_framework, i64 76), align 4, !tbaa !24
  %39 = tail call i32 @pmix_output_get_verbosity(i32 noundef %38) #11
  %40 = icmp sgt i32 %39, 5
  br i1 %40, label %41, label %.preheader

41:                                               ; preds = %37
  tail call void @prte_state_base_print_job_state_machine() #11
  br label %.preheader

.preheader:                                       ; preds = %41, %37
  br label %42

42:                                               ; preds = %.preheader, %49
  %indvars.iv42 = phi i64 [ %indvars.iv.next43, %49 ], [ 0, %.preheader ]
  %43 = load ptr, ptr getelementptr inbounds nuw (i8, ptr @prte_state, i64 56), align 8, !tbaa !30
  %44 = getelementptr inbounds nuw [6 x i32], ptr @proc_states, i64 0, i64 %indvars.iv42
  %45 = load i32, ptr %44, align 4, !tbaa !3
  %46 = tail call i32 %43(i32 noundef %45, ptr noundef nonnull @track_procs) #11
  switch i32 %46, label %47 [
    i32 -43, label %49
    i32 0, label %49
  ]

47:                                               ; preds = %42
  %48 = tail call ptr @prte_strerror(i32 noundef %46) #11
  tail call void (i32, ptr, ...) @pmix_output(i32 noundef 0, ptr noundef nonnull @.str, ptr noundef %48, ptr noundef nonnull @.str.1, i32 noundef 134) #11
  br label %49

49:                                               ; preds = %42, %42, %47
  %indvars.iv.next43 = add nuw nsw i64 %indvars.iv42, 1
  %exitcond.not = icmp eq i64 %indvars.iv.next43, 6
  br i1 %exitcond.not, label %50, label %42, !llvm.loop !31

50:                                               ; preds = %49
  %51 = load i32, ptr getelementptr inbounds nuw (i8, ptr @prte_state_base_framework, i64 76), align 4, !tbaa !24
  %52 = tail call i32 @pmix_output_get_verbosity(i32 noundef %51) #11
  %53 = icmp sgt i32 %52, 5
  br i1 %53, label %54, label %55

54:                                               ; preds = %50
  tail call void @prte_state_base_print_proc_state_machine() #11
  br label %55

55:                                               ; preds = %54, %50
  ret i32 0
}